; Function Attrs: mustprogress uwtable
define hidden noundef zeroext i1 @_ZN3sat9lookahead9backtrackER7svectorINS_7literalEjERS1_IbjE(ptr noundef nonnull align 8 dereferenceable(1160) %this, ptr nocapture noundef nonnull readonly align 8 dereferenceable(8) %trail, ptr nocapture noundef nonnull readonly align 8 dereferenceable(8) %is_decision) local_unnamed_addr #3 align 2 {
entry:
  %m_backtracks = getelementptr inbounds i8, ptr %this, i64 1080
  %0 = load i32, ptr %m_backtracks, align 8
  %inc = add i32 %0, 1
  store i32 %inc, ptr %m_backtracks, align 8
  %m_inconsistent.i = getelementptr inbounds i8, ptr %this, i64 832
  %1 = load i8, ptr %m_inconsistent.i, align 8
  %2 = and i8 %1, 1
  %tobool.i.not26 = icmp eq i8 %2, 0
  br i1 %tobool.i.not26, label %return, label %while.body

while.body:                                       ; preds = %entry, %if.end8
  %3 = load ptr, ptr %trail, align 8
  %cmp.i = icmp eq ptr %3, null
  br i1 %cmp.i, label %return, label %_ZNK6vectorIN3sat7literalELb0EjE5emptyEv.exit

_ZNK6vectorIN3sat7literalELb0EjE5emptyEv.exit:    ; preds = %while.body
  %arrayidx.i = getelementptr inbounds i8, ptr %3, i64 -4
  %4 = load i32, ptr %arrayidx.i, align 4
  %cmp3.i = icmp eq i32 %4, 0
  br i1 %cmp3.i, label %return, label %if.end

if.end:                                           ; preds = %_ZNK6vectorIN3sat7literalELb0EjE5emptyEv.exit
  %5 = load ptr, ptr %is_decision, align 8
  %cmp.i.i = icmp eq ptr %5, null
  br i1 %cmp.i.i, label %_ZN6vectorIbLb0EjE4backEv.exit, label %if.end.i.i

if.end.i.i:                                       ; preds = %if.end
  %arrayidx.i.i = getelementptr inbounds i8, ptr %5, i64 -4
  %6 = load i32, ptr %arrayidx.i.i, align 4
  %7 = add i32 %6, -1
  %8 = zext i32 %7 to i64
  br label %_ZN6vectorIbLb0EjE4backEv.exit

_ZN6vectorIbLb0EjE4backEv.exit:                   ; preds = %if.end, %if.end.i.i
  %retval.0.i.i = phi i64 [ %8, %if.end.i.i ], [ 4294967295, %if.end ]
  %arrayidx.i1.i = getelementptr inbounds i8, ptr %5, i64 %retval.0.i.i
  %9 = load i8, ptr %arrayidx.i1.i, align 1
  %10 = and i8 %9, 1
  %tobool.not = icmp eq i8 %10, 0
  br i1 %tobool.not, label %if.else, label %if.then4

if.then4:                                         ; preds = %_ZN6vectorIbLb0EjE4backEv.exit
  tail call void @_ZN3sat9lookahead3popEv(ptr noundef nonnull align 8 dereferenceable(1160) %this)
  %11 = load ptr, ptr %trail, align 8
  %cmp.i.i6 = icmp eq ptr %11, null
  br i1 %cmp.i.i6, label %_ZN6vectorIN3sat7literalELb0EjE4backEv.exit, label %if.end.i.i7

if.end.i.i7:                                      ; preds = %if.then4
  %arrayidx.i.i8 = getelementptr inbounds i8, ptr %11, i64 -4
  %12 = load i32, ptr %arrayidx.i.i8, align 4
  %13 = add i32 %12, -1
  %14 = zext i32 %13 to i64
  br label %_ZN6vectorIN3sat7literalELb0EjE4backEv.exit

_ZN6vectorIN3sat7literalELb0EjE4backEv.exit:      ; preds = %if.then4, %if.end.i.i7
  %retval.0.i.i9 = phi i64 [ %14, %if.end.i.i7 ], [ 4294967295, %if.then4 ]
  %arrayidx.i1.i10 = getelementptr inbounds %"class.sat::literal", ptr %11, i64 %retval.0.i.i9
  %15 = load i32, ptr %arrayidx.i1.i10, align 4
  %xor.i = xor i32 %15, 1
  store i32 %xor.i, ptr %arrayidx.i1.i10, align 4
  %16 = load ptr, ptr %trail, align 8
  %cmp.i.i11 = icmp eq ptr %16, null
  br i1 %cmp.i.i11, label %_ZN6vectorIN3sat7literalELb0EjE4backEv.exit16, label %if.end.i.i12

if.end.i.i12:                                     ; preds = %_ZN6vectorIN3sat7literalELb0EjE4backEv.exit
  %arrayidx.i.i13 = getelementptr inbounds i8, ptr %16, i64 -4
  %17 = load i32, ptr %arrayidx.i.i13, align 4
  %18 = add i32 %17, -1
  %19 = zext i32 %18 to i64
  br label %_ZN6vectorIN3sat7literalELb0EjE4backEv.exit16

_ZN6vectorIN3sat7literalELb0EjE4backEv.exit16:    ; preds = %_ZN6vectorIN3sat7literalELb0EjE4backEv.exit, %if.end.i.i12
  %retval.0.i.i14 = phi i64 [ %19, %if.end.i.i12 ], [ 4294967295, %_ZN6vectorIN3sat7literalELb0EjE4backEv.exit ]
  %arrayidx.i1.i15 = getelementptr inbounds %"class.sat::literal", ptr %16, i64 %retval.0.i.i14
  %agg.tmp.sroa.0.0.copyload = load i32, ptr %arrayidx.i1.i15, align 4
  tail call void @_ZN3sat9lookahead6assignENS_7literalE(ptr noundef nonnull align 8 dereferenceable(1160) %this, i32 %agg.tmp.sroa.0.0.copyload)
  %20 = load ptr, ptr %is_decision, align 8
  %cmp.i.i17 = icmp eq ptr %20, null
  br i1 %cmp.i.i17, label %_ZN6vectorIbLb0EjE4backEv.exit22, label %if.end.i.i18

if.end.i.i18:                                     ; preds = %_ZN6vectorIN3sat7literalELb0EjE4backEv.exit16
  %arrayidx.i.i19 = getelementptr inbounds i8, ptr %20, i64 -4
  %21 = load i32, ptr %arrayidx.i.i19, align 4
  %22 = add i32 %21, -1
  %23 = zext i32 %22 to i64
  br label %_ZN6vectorIbLb0EjE4backEv.exit22

_ZN6vectorIbLb0EjE4backEv.exit22:                 ; preds = %_ZN6vectorIN3sat7literalELb0EjE4backEv.exit16, %if.end.i.i18
  %retval.0.i.i20 = phi i64 [ %23, %if.end.i.i18 ], [ 4294967295, %_ZN6vectorIN3sat7literalELb0EjE4backEv.exit16 ]
  %arrayidx.i1.i21 = getelementptr inbounds i8, ptr %20, i64 %retval.0.i.i20
  store i8 0, ptr %arrayidx.i1.i21, align 1
  tail call void @_ZN3sat9lookahead9propagateEv(ptr noundef nonnull align 8 dereferenceable(1160) %this)
  br label %if.end8

if.else:                                          ; preds = %_ZN6vectorIbLb0EjE4backEv.exit
  %dec.i = add i32 %4, -1
  store i32 %dec.i, ptr %arrayidx.i, align 4
  %24 = load ptr, ptr %is_decision, align 8
  %arrayidx.i24 = getelementptr inbounds i8, ptr %24, i64 -4
  %25 = load i32, ptr %arrayidx.i24, align 4
  %dec.i25 = add i32 %25, -1
  store i32 %dec.i25, ptr %arrayidx.i24, align 4
  br label %if.end8

if.end8:                                          ; preds = %if.else, %_ZN6vectorIbLb0EjE4backEv.exit22
  %26 = load i8, ptr %m_inconsistent.i, align 8
  %27 = and i8 %26, 1
  %tobool.i.not = icmp eq i8 %27, 0
  br i1 %tobool.i.not, label %return, label %while.body, !llvm.loop !76

return:                                           ; preds = %_ZNK6vectorIN3sat7literalELb0EjE5emptyEv.exit, %if.end8, %while.body, %entry
  %tobool.i.not.lcssa = phi i1 [ true, %entry ], [ false, %while.body ], [ true, %if.end8 ], [ false, %_ZNK6vectorIN3sat7literalELb0EjE5emptyEv.exit ]
  ret i1 %tobool.i.not.lcssa
}